((lp0
I3459861
aI3460373
aI3460885
aI3461397
aI3461909
aI3462421
aI3462933
aI3463445
aI3463957
aI3464469
aI3464981
aI3465493
aI3466005
aI3466517
a(lp1
I1702500
aI1702977
aI1703454
aI1703931
aI1704408
aI1704885
aI1705362
aI1705839
aI1706316
aI1706793
aI1707270
aI1707747
aI512
I477
I3459861
I1702500
I3466517
I1707588
I14
tp2
.