((lp0
I1597761
aI1598273
aI1598785
aI1599297
aI1599809
aI1600321
aI1600833
aI1601345
aI1601857
aI1602369
aI1602881
a(lp1
I790913
aI791390
aI791867
aI792344
aI792821
aI793298
aI793775
aI512
I477
I1597505
I790657
I1602748
I793785
I13
tp2
.